; Function Attrs: nounwind uwtable
define hidden void @zim_SQLite3_createCollation(ptr noundef readonly captures(none) %0, ptr noundef writeonly captures(none) %1) #0 {
  %3 = alloca ptr, align 8
  %4 = alloca %struct._zend_fcall_info, align 8
  %5 = alloca %struct._zend_fcall_info_cache, align 8
  %6 = getelementptr inbounds nuw i8, ptr %0, i64 32
  call void @llvm.lifetime.start.p0(i64 8, ptr nonnull %3) #17
  call void @llvm.lifetime.start.p0(i64 64, ptr nonnull %4) #17
  call void @llvm.memcpy.p0.p0.i64(ptr noundef nonnull align 8 dereferenceable(64) %4, ptr noundef nonnull align 8 dereferenceable(64) @empty_fcall_info, i64 64, i1 false), !tbaa.struct !102
  call void @llvm.lifetime.start.p0(i64 40, ptr nonnull %5) #17
  call void @llvm.memcpy.p0.p0.i64(ptr noundef nonnull align 8 dereferenceable(40) %5, ptr noundef nonnull align 8 dereferenceable(40) @empty_fcall_info_cache, i64 40, i1 false), !tbaa.struct !60
  %7 = load ptr, ptr %6, align 8, !tbaa !8
  %8 = getelementptr inbounds nuw i8, ptr %0, i64 44
  %9 = load i32, ptr %8, align 4, !tbaa !8
  %10 = call i32 (i32, ptr, ...) @zend_parse_parameters(i32 noundef %9, ptr noundef nonnull @.str.26, ptr noundef nonnull %3, ptr noundef nonnull %4, ptr noundef nonnull %5) #17
  %11 = icmp eq i32 %10, -1
  br i1 %11, label %12, label %15

12:                                               ; preds = %2
  %13 = load ptr, ptr getelementptr inbounds nuw (i8, ptr @executor_globals, i64 960), align 8, !tbaa !9
  %14 = icmp ne ptr %13, null
  call void @llvm.assume(i1 %14)
  br label %69

15:                                               ; preds = %2
  %16 = getelementptr inbounds i8, ptr %7, i64 -128
  %17 = load i8, ptr %16, align 8, !tbaa !44, !range !55, !noundef !56
  %18 = trunc nuw i8 %17 to i1
  br i1 %18, label %22, label %19

19:                                               ; preds = %15
  call void @zend_release_fcall_info_cache(ptr noundef nonnull %5) #17
  call void (ptr, ptr, ...) @zend_throw_error(ptr noundef null, ptr noundef nonnull @.str.8) #17
  %20 = load ptr, ptr getelementptr inbounds nuw (i8, ptr @executor_globals, i64 960), align 8, !tbaa !9
  %21 = icmp ne ptr %20, null
  call void @llvm.assume(i1 %21)
  br label %69

22:                                               ; preds = %15
  %23 = load ptr, ptr %3, align 8, !tbaa !79
  %24 = getelementptr inbounds nuw i8, ptr %23, i64 16
  %25 = load i64, ptr %24, align 8, !tbaa !73
  %.not17 = icmp eq i64 %25, 0
  br i1 %.not17, label %26, label %28

26:                                               ; preds = %22
  call void @zend_release_fcall_info_cache(ptr noundef nonnull %5) #17
  %27 = getelementptr inbounds nuw i8, ptr %1, i64 8
  store i32 2, ptr %27, align 8, !tbaa !8
  br label %69

28:                                               ; preds = %22
  %29 = call noalias dereferenceable_or_null(56) ptr @_ecalloc(i64 noundef 1, i64 noundef 56) #20
  %30 = getelementptr inbounds i8, ptr %7, i64 -120
  %31 = load ptr, ptr %30, align 8, !tbaa !59
  %32 = load ptr, ptr %3, align 8, !tbaa !79
  %33 = getelementptr inbounds nuw i8, ptr %32, i64 24
  %34 = call i32 @sqlite3_create_collation(ptr noundef %31, ptr noundef nonnull %33, i32 noundef 1, ptr noundef %29, ptr noundef nonnull @php_sqlite3_callback_compare) #17
  %35 = icmp eq i32 %34, 0
  br i1 %35, label %36, label %67

36:                                               ; preds = %28
  %37 = load ptr, ptr %3, align 8, !tbaa !79
  %38 = getelementptr inbounds nuw i8, ptr %37, i64 4
  %39 = load i32, ptr %38, align 4, !tbaa !8
  %40 = and i32 %39, 64
  %.not.i = icmp eq i32 %40, 0
  br i1 %.not.i, label %41, label %zend_string_copy.exit

41:                                               ; preds = %36
  %42 = load i32, ptr %37, align 4, !tbaa !70
  %43 = add i32 %42, 1
  store i32 %43, ptr %37, align 4, !tbaa !70
  br label %zend_string_copy.exit

zend_string_copy.exit:                            ; preds = %36, %41
  %44 = getelementptr inbounds nuw i8, ptr %29, i64 8
  store ptr %37, ptr %44, align 8, !tbaa !115
  %45 = getelementptr inbounds nuw i8, ptr %29, i64 16
  call void @llvm.memcpy.p0.p0.i64(ptr noundef nonnull align 8 dereferenceable(40) %45, ptr noundef nonnull align 8 dereferenceable(40) %5, i64 40, i1 false)
  %46 = load ptr, ptr %45, align 8, !tbaa !74, !nonnull !56, !noundef !56
  %47 = icmp eq ptr %46, getelementptr inbounds nuw (i8, ptr @executor_globals, i64 1384)
  br i1 %47, label %48, label %52, !prof !108

48:                                               ; preds = %zend_string_copy.exit
  %49 = call noalias ptr @_emalloc_256() #17
  %50 = load ptr, ptr %45, align 8, !tbaa !74
  call void @llvm.memcpy.p0.p0.i64(ptr noundef nonnull align 8 dereferenceable(256) %49, ptr noundef nonnull align 8 dereferenceable(256) %50, i64 256, i1 false)
  %51 = getelementptr inbounds nuw i8, ptr %50, i64 8
  store ptr null, ptr %51, align 8, !tbaa !8
  store ptr %49, ptr %45, align 8, !tbaa !74
  br label %52

52:                                               ; preds = %48, %zend_string_copy.exit
  %53 = getelementptr inbounds nuw i8, ptr %29, i64 40
  %54 = load ptr, ptr %53, align 8, !tbaa !76
  %.not.i18 = icmp eq ptr %54, null
  br i1 %.not.i18, label %58, label %55

55:                                               ; preds = %52
  %56 = load i32, ptr %54, align 4, !tbaa !70
  %57 = add i32 %56, 1
  store i32 %57, ptr %54, align 4, !tbaa !70
  br label %58

58:                                               ; preds = %55, %52
  %59 = getelementptr inbounds nuw i8, ptr %29, i64 48
  %60 = load ptr, ptr %59, align 8, !tbaa !109
  %.not12.i = icmp eq ptr %60, null
  br i1 %.not12.i, label %zend_fcc_addref.exit, label %61

61:                                               ; preds = %58
  %62 = load i32, ptr %60, align 4, !tbaa !70
  %63 = add i32 %62, 1
  store i32 %63, ptr %60, align 4, !tbaa !70
  br label %zend_fcc_addref.exit

zend_fcc_addref.exit:                             ; preds = %58, %61
  %64 = getelementptr inbounds i8, ptr %7, i64 -104
  %65 = load ptr, ptr %64, align 8, !tbaa !117
  store ptr %65, ptr %29, align 8, !tbaa !118
  store ptr %29, ptr %64, align 8, !tbaa !117
  %66 = getelementptr inbounds nuw i8, ptr %1, i64 8
  store i32 3, ptr %66, align 8, !tbaa !8
  br label %69

67:                                               ; preds = %28
  call void @_efree(ptr noundef %29) #17
  call void @zend_release_fcall_info_cache(ptr noundef nonnull %5) #17
  %68 = getelementptr inbounds nuw i8, ptr %1, i64 8
  store i32 2, ptr %68, align 8, !tbaa !8
  br label %69

69:                                               ; preds = %67, %zend_fcc_addref.exit, %26, %19, %12
  call void @llvm.lifetime.end.p0(i64 40, ptr nonnull %5) #17
  call void @llvm.lifetime.end.p0(i64 64, ptr nonnull %4) #17
  call void @llvm.lifetime.end.p0(i64 8, ptr nonnull %3) #17
  ret void
}